; Function Attrs: mustprogress nounwind uwtable
define internal void @"_ZZN9grpc_core10NewClosureIZN12_GLOBAL__N_116inproc_transport15PerformStreamOpEP11grpc_streamP30grpc_transport_stream_op_batchE3$_0EEP12grpc_closureT_EN7Closure3RunEPvN4absl12lts_202407226StatusE"(ptr noundef %0, ptr noundef readonly captures(none) %1) #9 align 2 personality ptr @__gxx_personality_v0 {
  %3 = load i64, ptr %1, align 8, !tbaa !64
  %4 = and i64 %3, 1
  %.not.i.i = icmp eq i64 %4, 0
  br i1 %.not.i.i, label %5, label %_ZN4absl12lts_202407226StatusD2Ev.exit

5:                                                ; preds = %2
  %6 = inttoptr i64 %3 to ptr
  %7 = atomicrmw add ptr %6, i32 1 monotonic, align 4
  invoke void @_ZNK4absl12lts_2024072215status_internal9StatusRep5UnrefEv(ptr noundef nonnull align 8 dereferenceable(48) %6)
          to label %_ZN4absl12lts_202407226StatusD2Ev.exit unwind label %8

8:                                                ; preds = %5
  %9 = landingpad { ptr, i32 }
          catch ptr null
  %10 = extractvalue { ptr, i32 } %9, 0
  tail call void @__clang_call_terminate(ptr %10) #36
  unreachable

_ZN4absl12lts_202407226StatusD2Ev.exit:           ; preds = %2, %5
  %11 = icmp eq ptr %0, null
  br i1 %11, label %13, label %12

12:                                               ; preds = %_ZN4absl12lts_202407226StatusD2Ev.exit
  tail call void @_ZdlPvm(ptr noundef nonnull %0, i64 noundef 40) #35
  br label %13

13:                                               ; preds = %12, %_ZN4absl12lts_202407226StatusD2Ev.exit
  ret void
}